target datalayout = "e-m:e-p270:32:32-p271:32:32-p272:64:64-i64:64-i128:128-f80:128-n8:16:32:64-S128"
target triple = "x86_64-pc-linux-gnu"

%struct.tsi_handshaker_result = type { ptr }
%struct.tsi_handshaker_result_vtable = type { ptr, ptr, ptr, ptr, ptr, ptr }

; Function Attrs: mustprogress uwtable
define noundef i32 @_Z46tsi_handshaker_result_get_frame_protector_typePK21tsi_handshaker_resultP24tsi_frame_protector_type(ptr noundef %0, ptr noundef %1) #5 {
  %3 = alloca i32, align 4
  %4 = alloca ptr, align 8
  %5 = alloca ptr, align 8
  store ptr %0, ptr %4, align 8, !tbaa !58
  store ptr %1, ptr %5, align 8, !tbaa !51
  %6 = load ptr, ptr %4, align 8, !tbaa !58
  %7 = icmp eq ptr %6, null
  br i1 %7, label %11, label %8

8:                                                ; preds = %2
  %9 = load ptr, ptr %5, align 8, !tbaa !51
  %10 = icmp eq ptr %9, null
  br i1 %10, label %11, label %12

11:                                               ; preds = %8, %2
  store i32 2, ptr %3, align 4
  br label %29

12:                                               ; preds = %8
  %13 = load ptr, ptr %4, align 8, !tbaa !58
  %14 = getelementptr inbounds nuw %struct.tsi_handshaker_result, ptr %13, i32 0, i32 0
  %15 = load ptr, ptr %14, align 8, !tbaa !60
  %16 = getelementptr inbounds nuw %struct.tsi_handshaker_result_vtable, ptr %15, i32 0, i32 1
  %17 = load ptr, ptr %16, align 8, !tbaa !65
  %18 = icmp eq ptr %17, null
  br i1 %18, label %19, label %20

19:                                               ; preds = %12
  store i32 6, ptr %3, align 4
  br label %29

20:                                               ; preds = %12
  %21 = load ptr, ptr %4, align 8, !tbaa !58
  %22 = getelementptr inbounds nuw %struct.tsi_handshaker_result, ptr %21, i32 0, i32 0
  %23 = load ptr, ptr %22, align 8, !tbaa !60
  %24 = getelementptr inbounds nuw %struct.tsi_handshaker_result_vtable, ptr %23, i32 0, i32 1
  %25 = load ptr, ptr %24, align 8, !tbaa !65
  %26 = load ptr, ptr %4, align 8, !tbaa !58
  %27 = load ptr, ptr %5, align 8, !tbaa !51
  %28 = call noundef i32 %25(ptr noundef %26, ptr noundef %27)
  store i32 %28, ptr %3, align 4
  br label %29

29:                                               ; preds = %20, %19, %11
  %30 = load i32, ptr %3, align 4
  ret i32 %30
}