; Function Attrs: mustprogress uwtable
define noundef i32 @_Z46tsi_handshaker_result_get_frame_protector_typePK21tsi_handshaker_resultP24tsi_frame_protector_type(ptr noundef %0, ptr noundef %1) local_unnamed_addr #4 {
  %3 = icmp eq ptr %0, null
  %4 = icmp eq ptr %1, null
  %or.cond = or i1 %3, %4
  br i1 %or.cond, label %12, label %5

5:                                                ; preds = %2
  %6 = load ptr, ptr %0, align 8, !tbaa !37
  %7 = getelementptr inbounds nuw i8, ptr %6, i64 8
  %8 = load ptr, ptr %7, align 8, !tbaa !42
  %9 = icmp eq ptr %8, null
  br i1 %9, label %12, label %10

10:                                               ; preds = %5
  %11 = tail call noundef i32 %8(ptr noundef nonnull %0, ptr noundef nonnull %1)
  br label %12

12:                                               ; preds = %5, %2, %10
  %.0 = phi i32 [ %11, %10 ], [ 2, %2 ], [ 6, %5 ]
  ret i32 %.0
}